target datalayout = "e-m:e-p270:32:32-p271:32:32-p272:64:64-i64:64-i128:128-f80:128-n8:16:32:64-S128"
target triple = "x86_64-unknown-linux-gnu"

%class.model_core = type { ptr, ptr, i32, [4 x i8], %class.obj_map, %class.obj_map.0, %class.ptr_vector, %class.ptr_vector, %class.ptr_vector }
%class.obj_map = type { %class.core_hashtable }
%class.core_hashtable = type <{ ptr, i32, i32, i32, [4 x i8] }>
%class.obj_map.0 = type { %class.core_hashtable.1 }
%class.core_hashtable.1 = type <{ ptr, i32, i32, i32, [4 x i8] }>
%class.ptr_vector = type { %class.vector }
%class.vector = type { ptr }
%class.symbol = type { ptr }
%class.func_decl = type { %class.decl, i32, ptr, [0 x ptr] }
%class.decl = type { %class.ast, %class.symbol, ptr }
%class.ast = type { i32, i24, i32, i32 }

; Function Attrs: mustprogress nounwind uwtable
define linkonce_odr hidden noundef i32 @_ZNK9func_decl9get_arityEv(ptr noundef nonnull align 8 dereferenceable(48) %this) #5 comdat align 2 {
entry:
  %this.addr = alloca ptr, align 8
  store ptr %this, ptr %this.addr, align 8
  %this1 = load ptr, ptr %this.addr, align 8
  %m_arity = getelementptr inbounds %class.func_decl, ptr %this1, i32 0, i32 1
  %0 = load i32, ptr %m_arity, align 8
  ret i32 %0
}

; Function Attrs: mustprogress nounwind uwtable
define linkonce_odr hidden noundef ptr @_ZNK9func_decl9get_rangeEv(ptr noundef nonnull align 8 dereferenceable(48) %this) #5 comdat align 2 {
entry:
  %this.addr = alloca ptr, align 8
  store ptr %this, ptr %this.addr, align 8
  %this1 = load ptr, ptr %this.addr, align 8
  %m_range = getelementptr inbounds %class.func_decl, ptr %this1, i32 0, i32 2
  %0 = load ptr, ptr %m_range, align 8
  ret ptr %0
}

; Function Attrs: mustprogress uwtable
define hidden noundef ptr @_ZN11proto_model18mk_some_interp_forEP9func_decl(ptr noundef nonnull align 8 dereferenceable(177) %this, ptr noundef %d) #4 align 2 {
entry:
  %this.addr = alloca ptr, align 8
  %d.addr = alloca ptr, align 8
  %r = alloca ptr, align 8
  %new_fi = alloca ptr, align 8
  store ptr %this, ptr %this.addr, align 8
  store ptr %d, ptr %d.addr, align 8
  %this1 = load ptr, ptr %this.addr, align 8
  %0 = load ptr, ptr %d.addr, align 8
  %call = call noundef ptr @_ZNK9func_decl9get_rangeEv(ptr noundef nonnull align 8 dereferenceable(48) %0)
  %vtable = load ptr, ptr %this1, align 8
  %vfn = getelementptr inbounds ptr, ptr %vtable, i64 5
  %1 = load ptr, ptr %vfn, align 8
  %call2 = call noundef ptr %1(ptr noundef nonnull align 8 dereferenceable(177) %this1, ptr noundef %call)
  store ptr %call2, ptr %r, align 8
  %2 = load ptr, ptr %d.addr, align 8
  %call3 = call noundef i32 @_ZNK9func_decl9get_arityEv(ptr noundef nonnull align 8 dereferenceable(48) %2)
  %cmp = icmp eq i32 %call3, 0
  br i1 %cmp, label %if.then, label %if.else

if.then:                                          ; preds = %entry
  %3 = load ptr, ptr %d.addr, align 8
  %4 = load ptr, ptr %r, align 8
  call void @_ZN10model_core13register_declEP9func_declP4expr(ptr noundef nonnull align 8 dereferenceable(96) %this1, ptr noundef %3, ptr noundef %4)
  br label %if.end

if.else:                                          ; preds = %entry
  %call4 = call noalias noundef ptr @_ZN6memory8allocateEm(i64 noundef 56)
  %m = getelementptr inbounds %class.model_core, ptr %this1, i32 0, i32 1
  %5 = load ptr, ptr %m, align 8
  %6 = load ptr, ptr %d.addr, align 8
  %call5 = call noundef i32 @_ZNK9func_decl9get_arityEv(ptr noundef nonnull align 8 dereferenceable(48) %6)
  call void @_ZN11func_interpC1ER11ast_managerj(ptr noundef nonnull align 8 dereferenceable(56) %call4, ptr noundef nonnull align 8 dereferenceable(976) %5, i32 noundef %call5)
  store ptr %call4, ptr %new_fi, align 8
  %7 = load ptr, ptr %new_fi, align 8
  %8 = load ptr, ptr %r, align 8
  call void @_ZN11func_interp8set_elseEP4expr(ptr noundef nonnull align 8 dereferenceable(56) %7, ptr noundef %8)
  %9 = load ptr, ptr %d.addr, align 8
  %10 = load ptr, ptr %new_fi, align 8
  call void @_ZN10model_core13register_declEP9func_declP11func_interp(ptr noundef nonnull align 8 dereferenceable(96) %this1, ptr noundef %9, ptr noundef %10)
  br label %if.end

if.end:                                           ; preds = %if.else, %if.then
  %11 = load ptr, ptr %r, align 8
  ret ptr %11
}