; Function Attrs: mustprogress uwtable
define hidden noundef ptr @_ZN11proto_model18mk_some_interp_forEP9func_decl(ptr noundef nonnull align 8 dereferenceable(177) %this, ptr noundef %d) local_unnamed_addr #3 align 2 {
entry:
  %m_range.i = getelementptr inbounds i8, ptr %d, i64 40
  %0 = load ptr, ptr %m_range.i, align 8
  %vtable = load ptr, ptr %this, align 8
  %vfn = getelementptr inbounds i8, ptr %vtable, i64 40
  %1 = load ptr, ptr %vfn, align 8
  %call2 = tail call noundef ptr %1(ptr noundef nonnull align 8 dereferenceable(177) %this, ptr noundef %0)
  %m_arity.i = getelementptr inbounds i8, ptr %d, i64 32
  %2 = load i32, ptr %m_arity.i, align 8
  %cmp = icmp eq i32 %2, 0
  br i1 %cmp, label %if.then, label %if.else

if.then:                                          ; preds = %entry
  tail call void @_ZN10model_core13register_declEP9func_declP4expr(ptr noundef nonnull align 8 dereferenceable(96) %this, ptr noundef nonnull %d, ptr noundef %call2)
  br label %if.end

if.else:                                          ; preds = %entry
  %call4 = tail call noalias noundef ptr @_ZN6memory8allocateEm(i64 noundef 56)
  %m = getelementptr inbounds i8, ptr %this, i64 8
  %3 = load ptr, ptr %m, align 8
  %4 = load i32, ptr %m_arity.i, align 8
  tail call void @_ZN11func_interpC1ER11ast_managerj(ptr noundef nonnull align 8 dereferenceable(56) %call4, ptr noundef nonnull align 8 dereferenceable(976) %3, i32 noundef %4)
  tail call void @_ZN11func_interp8set_elseEP4expr(ptr noundef nonnull align 8 dereferenceable(56) %call4, ptr noundef %call2)
  tail call void @_ZN10model_core13register_declEP9func_declP11func_interp(ptr noundef nonnull align 8 dereferenceable(96) %this, ptr noundef nonnull %d, ptr noundef nonnull %call4)
  br label %if.end

if.end:                                           ; preds = %if.else, %if.then
  ret ptr %call2
}